; Function Attrs: nounwind uwtable
define nonnull ptr @l_Lean_Elab_Structural_beqIndGroupInfo____x40_Lean_Elab_PreDefinition_Structural_IndGroupInfo___hyg_26____boxed(ptr noundef %0, ptr noundef %1) #0 {
  %3 = getelementptr inbounds nuw i8, ptr %0, i64 8
  %4 = load ptr, ptr %3, align 8, !tbaa !11
  %5 = getelementptr inbounds nuw i8, ptr %0, i64 16
  %6 = load ptr, ptr %5, align 8, !tbaa !11
  %7 = getelementptr inbounds nuw i8, ptr %1, i64 8
  %8 = load ptr, ptr %7, align 8, !tbaa !11
  %9 = getelementptr inbounds nuw i8, ptr %1, i64 16
  %10 = load ptr, ptr %9, align 8, !tbaa !11
  %11 = getelementptr i8, ptr %4, i64 8
  %.val28.i = load i64, ptr %11, align 8, !tbaa !13
  %12 = shl i64 %.val28.i, 1
  %13 = getelementptr i8, ptr %8, i64 8
  %.val.i = load i64, ptr %13, align 8, !tbaa !13
  %14 = shl i64 %.val.i, 1
  %.not.i8 = icmp eq i64 %12, %14
  br i1 %.not.i8, label %15, label %l_Lean_Elab_Structural_beqIndGroupInfo____x40_Lean_Elab_PreDefinition_Structural_IndGroupInfo___hyg_26_.exit

15:                                               ; preds = %2
  %16 = or disjoint i64 %12, 1
  %17 = inttoptr i64 %16 to ptr
  %18 = tail call zeroext i8 @l_Array_isEqvAux___at_Lean_Elab_Structural_beqIndGroupInfo____x40_Lean_Elab_PreDefinition_Structural_IndGroupInfo___hyg_26____spec__1(ptr nonnull poison, ptr nonnull poison, ptr nonnull poison, ptr noundef nonnull %4, ptr noundef nonnull %8, ptr noundef nonnull %17, ptr nonnull poison)
  %19 = icmp eq i8 %18, 0
  br i1 %19, label %l_Lean_Elab_Structural_beqIndGroupInfo____x40_Lean_Elab_PreDefinition_Structural_IndGroupInfo___hyg_26_.exit, label %20

20:                                               ; preds = %15
  %21 = ptrtoint ptr %6 to i64
  %22 = and i64 %21, 1
  %23 = icmp ne i64 %22, 0
  %24 = ptrtoint ptr %10 to i64
  %25 = and i64 %24, 1
  %26 = icmp ne i64 %25, 0
  %or.cond.i = select i1 %23, i1 %26, i1 false
  br i1 %or.cond.i, label %27, label %.critedge.i25.i, !prof !15

27:                                               ; preds = %20
  %28 = icmp eq ptr %6, %10
  br label %lean_nat_eq.exit27.i

.critedge.i25.i:                                  ; preds = %20
  %29 = tail call zeroext i1 @lean_nat_big_eq(ptr noundef %6, ptr noundef %10) #4
  br label %lean_nat_eq.exit27.i

lean_nat_eq.exit27.i:                             ; preds = %.critedge.i25.i, %27
  %.0.i26.i = phi i1 [ %28, %27 ], [ %29, %.critedge.i25.i ]
  %30 = select i1 %.0.i26.i, i64 3, i64 1
  br label %l_Lean_Elab_Structural_beqIndGroupInfo____x40_Lean_Elab_PreDefinition_Structural_IndGroupInfo___hyg_26_.exit

l_Lean_Elab_Structural_beqIndGroupInfo____x40_Lean_Elab_PreDefinition_Structural_IndGroupInfo___hyg_26_.exit: ; preds = %2, %15, %lean_nat_eq.exit27.i
  %.0.i = phi i64 [ %30, %lean_nat_eq.exit27.i ], [ 1, %15 ], [ 1, %2 ]
  %31 = ptrtoint ptr %1 to i64
  %32 = and i64 %31, 1
  %.not = icmp eq i64 %32, 0
  br i1 %.not, label %33, label %lean_dec.exit5

33:                                               ; preds = %l_Lean_Elab_Structural_beqIndGroupInfo____x40_Lean_Elab_PreDefinition_Structural_IndGroupInfo___hyg_26_.exit
  %34 = load i32, ptr %1, align 4, !tbaa !5
  %35 = icmp sgt i32 %34, 1
  br i1 %35, label %36, label %38, !prof !10

36:                                               ; preds = %33
  %37 = add nsw i32 %34, -1
  store i32 %37, ptr %1, align 4, !tbaa !5
  br label %lean_dec.exit5

38:                                               ; preds = %33
  %.not.i = icmp eq i32 %34, 0
  br i1 %.not.i, label %lean_dec.exit5, label %39

39:                                               ; preds = %38
  tail call void @lean_dec_ref_cold(ptr noundef nonnull %1) #4
  br label %lean_dec.exit5

lean_dec.exit5:                                   ; preds = %39, %38, %36, %l_Lean_Elab_Structural_beqIndGroupInfo____x40_Lean_Elab_PreDefinition_Structural_IndGroupInfo___hyg_26_.exit
  %40 = ptrtoint ptr %0 to i64
  %41 = and i64 %40, 1
  %.not9 = icmp eq i64 %41, 0
  br i1 %.not9, label %42, label %lean_dec.exit

42:                                               ; preds = %lean_dec.exit5
  %43 = load i32, ptr %0, align 4, !tbaa !5
  %44 = icmp sgt i32 %43, 1
  br i1 %44, label %45, label %47, !prof !10

45:                                               ; preds = %42
  %46 = add nsw i32 %43, -1
  store i32 %46, ptr %0, align 4, !tbaa !5
  br label %lean_dec.exit

47:                                               ; preds = %42
  %.not.i6 = icmp eq i32 %43, 0
  br i1 %.not.i6, label %lean_dec.exit, label %48

48:                                               ; preds = %47
  tail call void @lean_dec_ref_cold(ptr noundef nonnull %0) #4
  br label %lean_dec.exit

lean_dec.exit:                                    ; preds = %48, %47, %45, %lean_dec.exit5
  %49 = inttoptr i64 %.0.i to ptr
  ret ptr %49
}